; Function Attrs: mustprogress uwtable
define hidden noundef i64 @_ZNK6google8protobuf2io18StringOutputStream9ByteCountEv(ptr noundef nonnull readonly align 8 captures(none) dereferenceable(16) %0) unnamed_addr #6 align 2 personality ptr @__gxx_personality_v0 {
  %2 = alloca %"class.google::protobuf::internal::LogMessage", align 8
  %3 = alloca %"class.google::protobuf::internal::LogFinisher", align 1
  %4 = getelementptr inbounds nuw i8, ptr %0, i64 8
  %5 = load ptr, ptr %4, align 8, !tbaa !26
  %.not = icmp eq ptr %5, null
  call void @llvm.lifetime.start.p0(i64 1, ptr nonnull %3) #19
  br i1 %.not, label %6, label %9

6:                                                ; preds = %1
  call void @llvm.lifetime.start.p0(i64 56, ptr nonnull %2) #19
  call void @_ZN6google8protobuf8internal10LogMessageC1ENS0_8LogLevelEPKci(ptr noundef nonnull align 8 dereferenceable(56) %2, i32 noundef 3, ptr noundef nonnull @.str, i32 noundef 176)
  %7 = invoke noundef nonnull align 8 dereferenceable(56) ptr @_ZN6google8protobuf8internal10LogMessagelsEPKc(ptr noundef nonnull align 8 dereferenceable(56) %2, ptr noundef nonnull @.str.5)
          to label %8 unwind label %14

8:                                                ; preds = %6
  invoke void @_ZN6google8protobuf8internal11LogFinisheraSERNS1_10LogMessageE(ptr noundef nonnull align 1 dereferenceable(1) %3, ptr noundef nonnull align 8 dereferenceable(56) %7)
          to label %10 unwind label %16

9:                                                ; preds = %1
  call void @llvm.lifetime.end.p0(i64 1, ptr nonnull %3) #19
  br label %.critedge11

10:                                               ; preds = %8
  call void @llvm.lifetime.end.p0(i64 1, ptr nonnull %3) #19
  call void @_ZN6google8protobuf8internal10LogMessageD1Ev(ptr noundef nonnull align 8 dereferenceable(56) %2) #19
  call void @llvm.lifetime.end.p0(i64 56, ptr nonnull %2) #19
  %.pre = load ptr, ptr %4, align 8, !tbaa !26
  br label %.critedge11

.critedge11:                                      ; preds = %9, %10
  %11 = phi ptr [ %5, %9 ], [ %.pre, %10 ]
  %12 = getelementptr inbounds nuw i8, ptr %11, i64 8
  %13 = load i64, ptr %12, align 8, !tbaa !29
  ret i64 %13

14:                                               ; preds = %6
  %15 = landingpad { ptr, i32 }
          cleanup
  br label %18

16:                                               ; preds = %8
  %17 = landingpad { ptr, i32 }
          cleanup
  call void @llvm.lifetime.end.p0(i64 1, ptr nonnull %3) #19
  br label %18

18:                                               ; preds = %14, %16
  %.pn = phi { ptr, i32 } [ %17, %16 ], [ %15, %14 ]
  call void @_ZN6google8protobuf8internal10LogMessageD1Ev(ptr noundef nonnull align 8 dereferenceable(56) %2) #19
  call void @llvm.lifetime.end.p0(i64 56, ptr nonnull %2) #19
  resume { ptr, i32 } %.pn
}